target datalayout = "e-m:e-p270:32:32-p271:32:32-p272:64:64-i64:64-i128:128-f80:128-n8:16:32:64-S128"
target triple = "x86_64-pc-linux-gnu"

%struct.Abc_Obj_t_ = type { ptr, ptr, i32, i32, %struct.Vec_Int_t_, %struct.Vec_Int_t_, %union.anon.1, %union.anon.2 }
%struct.Vec_Int_t_ = type { i32, i32, ptr }
%union.anon.1 = type { ptr }
%union.anon.2 = type { ptr }
%struct.Vec_Ptr_t_ = type { i32, i32, ptr }
%struct.Abc_Ntk_t_ = type { i32, i32, ptr, ptr, ptr, ptr, ptr, ptr, ptr, ptr, ptr, ptr, ptr, [11 x i32], i32, i32, i32, i32, ptr, i32, ptr, ptr, i32, i32, i32, double, i32, %struct.Vec_Int_t_, ptr, ptr, ptr, ptr, ptr, float, i32, ptr, ptr, ptr, ptr, ptr, ptr, ptr, ptr, ptr, ptr, ptr, ptr, ptr, ptr, ptr, ptr, ptr, ptr, ptr, ptr, ptr }
%struct.Aig_Man_t_ = type { ptr, ptr, ptr, ptr, ptr, ptr, ptr, %struct.Aig_Obj_t_, i32, i32, i32, i32, i32, i32, [7 x i32], i32, ptr, i32, ptr, i32, ptr, i32, i32, i32, ptr, i32, i32, i32, i32, i32, ptr, ptr, i32, ptr, ptr, i32, ptr, ptr, i32, i32, i32, ptr, ptr, ptr, ptr, ptr, ptr, ptr, ptr, ptr, ptr, ptr, ptr, ptr, ptr, i32, ptr, ptr, ptr, ptr, i32, i64, i64, i64, ptr, ptr }
%struct.Aig_Obj_t_ = type { %union.anon, ptr, ptr, i64, i32, i32, %union.anon.0 }
%union.anon = type { ptr }
%union.anon.0 = type { ptr }

; Function Attrs: nounwind uwtable
define internal ptr @Vec_PtrEntry(ptr noundef %0, i32 noundef %1) #0 {
  %3 = alloca ptr, align 8
  %4 = alloca i32, align 4
  store ptr %0, ptr %3, align 8
  store i32 %1, ptr %4, align 4
  %5 = load ptr, ptr %3, align 8
  %6 = getelementptr inbounds %struct.Vec_Ptr_t_, ptr %5, i32 0, i32 2
  %7 = load ptr, ptr %6, align 8
  %8 = load i32, ptr %4, align 4
  %9 = sext i32 %8 to i64
  %10 = getelementptr inbounds ptr, ptr %7, i64 %9
  %11 = load ptr, ptr %10, align 8
  ret ptr %11
}

; Function Attrs: nounwind uwtable
define internal void @Abc_LatchSetInit0(ptr noundef %0) #0 {
  %2 = alloca ptr, align 8
  store ptr %0, ptr %2, align 8
  %3 = load ptr, ptr %2, align 8
  %4 = getelementptr inbounds %struct.Abc_Obj_t_, ptr %3, i32 0, i32 6
  %5 = inttoptr i64 1 to ptr
  store ptr %5, ptr %4, align 8
  ret void
}

; Function Attrs: nounwind uwtable
define internal i32 @Abc_ObjIsLatch(ptr noundef %0) #0 {
  %2 = alloca ptr, align 8
  store ptr %0, ptr %2, align 8
  %3 = load ptr, ptr %2, align 8
  %4 = getelementptr inbounds %struct.Abc_Obj_t_, ptr %3, i32 0, i32 3
  %5 = load i32, ptr %4, align 4
  %6 = and i32 %5, 15
  %7 = icmp eq i32 %6, 8
  %8 = zext i1 %7 to i32
  ret i32 %8
}

; Function Attrs: nounwind uwtable
define internal ptr @Abc_NtkBox(ptr noundef %0, i32 noundef %1) #0 {
  %3 = alloca ptr, align 8
  %4 = alloca i32, align 4
  store ptr %0, ptr %3, align 8
  store i32 %1, ptr %4, align 4
  %5 = load ptr, ptr %3, align 8
  %6 = getelementptr inbounds %struct.Abc_Ntk_t_, ptr %5, i32 0, i32 11
  %7 = load ptr, ptr %6, align 8
  %8 = load i32, ptr %4, align 4
  %9 = call ptr @Vec_PtrEntry(ptr noundef %7, i32 noundef %8)
  ret ptr %9
}

; Function Attrs: nounwind uwtable
define internal i32 @Vec_PtrSize(ptr noundef %0) #0 {
  %2 = alloca ptr, align 8
  store ptr %0, ptr %2, align 8
  %3 = load ptr, ptr %2, align 8
  %4 = getelementptr inbounds %struct.Vec_Ptr_t_, ptr %3, i32 0, i32 1
  %5 = load i32, ptr %4, align 4
  ret i32 %5
}

; Function Attrs: nounwind uwtable
define internal i32 @Abc_NtkLatchNum(ptr noundef %0) #0 {
  %2 = alloca ptr, align 8
  store ptr %0, ptr %2, align 8
  %3 = load ptr, ptr %2, align 8
  %4 = getelementptr inbounds %struct.Abc_Ntk_t_, ptr %3, i32 0, i32 13
  %5 = getelementptr inbounds [11 x i32], ptr %4, i64 0, i64 8
  %6 = load i32, ptr %5, align 8
  ret i32 %6
}

; Function Attrs: nounwind uwtable
define internal i32 @Aig_ManRegNum(ptr noundef %0) #0 {
  %2 = alloca ptr, align 8
  store ptr %0, ptr %2, align 8
  %3 = load ptr, ptr %2, align 8
  %4 = getelementptr inbounds %struct.Aig_Man_t_, ptr %3, i32 0, i32 8
  %5 = load i32, ptr %4, align 8
  ret i32 %5
}

; Function Attrs: nounwind uwtable
define ptr @Abc_NtkDarLcorr(ptr noundef %0, i32 noundef %1, i32 noundef %2, i32 noundef %3) #0 {
  %5 = alloca ptr, align 8
  %6 = alloca ptr, align 8
  %7 = alloca i32, align 4
  %8 = alloca i32, align 4
  %9 = alloca i32, align 4
  %10 = alloca ptr, align 8
  %11 = alloca ptr, align 8
  %12 = alloca ptr, align 8
  %13 = alloca ptr, align 8
  %14 = alloca i32, align 4
  store ptr %0, ptr %6, align 8
  store i32 %1, ptr %7, align 4
  store i32 %2, ptr %8, align 4
  store i32 %3, ptr %9, align 4
  store ptr null, ptr %12, align 8
  %15 = load ptr, ptr %6, align 8
  %16 = call ptr @Abc_NtkToDar(ptr noundef %15, i32 noundef 0, i32 noundef 1)
  store ptr %16, ptr %10, align 8
  %17 = load ptr, ptr %10, align 8
  %18 = icmp eq ptr %17, null
  br i1 %18, label %19, label %20

19:                                               ; preds = %4
  store ptr null, ptr %5, align 8
  br label %72

20:                                               ; preds = %4
  %21 = load ptr, ptr %10, align 8
  store ptr %21, ptr %11, align 8
  %22 = load i32, ptr %7, align 4
  %23 = load i32, ptr %8, align 4
  %24 = load i32, ptr %9, align 4
  %25 = call ptr @Fra_FraigLatchCorrespondence(ptr noundef %21, i32 noundef %22, i32 noundef %23, i32 noundef 0, i32 noundef %24, ptr noundef null, float noundef 0.000000e+00)
  store ptr %25, ptr %10, align 8
  %26 = load ptr, ptr %11, align 8
  call void @Aig_ManStop(ptr noundef %26)
  %27 = load ptr, ptr %10, align 8
  %28 = icmp ne ptr %27, null
  br i1 %28, label %29, label %70

29:                                               ; preds = %20
  %30 = load ptr, ptr %10, align 8
  %31 = call i32 @Aig_ManRegNum(ptr noundef %30)
  %32 = load ptr, ptr %6, align 8
  %33 = call i32 @Abc_NtkLatchNum(ptr noundef %32)
  %34 = icmp slt i32 %31, %33
  br i1 %34, label %35, label %39

35:                                               ; preds = %29
  %36 = load ptr, ptr %6, align 8
  %37 = load ptr, ptr %10, align 8
  %38 = call ptr @Abc_NtkFromDarSeqSweep(ptr noundef %36, ptr noundef %37)
  store ptr %38, ptr %12, align 8
  br label %68

39:                                               ; preds = %29
  %40 = load ptr, ptr %6, align 8
  %41 = load ptr, ptr %10, align 8
  %42 = call ptr @Abc_NtkFromDar(ptr noundef %40, ptr noundef %41)
  store ptr %42, ptr %12, align 8
  store i32 0, ptr %14, align 4
  br label %43

43:                                               ; preds = %64, %39
  %44 = load i32, ptr %14, align 4
  %45 = load ptr, ptr %12, align 8
  %46 = getelementptr inbounds %struct.Abc_Ntk_t_, ptr %45, i32 0, i32 11
  %47 = load ptr, ptr %46, align 8
  %48 = call i32 @Vec_PtrSize(ptr noundef %47)
  %49 = icmp slt i32 %44, %48
  br i1 %49, label %50, label %54

50:                                               ; preds = %43
  %51 = load ptr, ptr %12, align 8
  %52 = load i32, ptr %14, align 4
  %53 = call ptr @Abc_NtkBox(ptr noundef %51, i32 noundef %52)
  store ptr %53, ptr %13, align 8
  br label %54

54:                                               ; preds = %50, %43
  %55 = phi i1 [ false, %43 ], [ true, %50 ]
  br i1 %55, label %56, label %67

56:                                               ; preds = %54
  %57 = load ptr, ptr %13, align 8
  %58 = call i32 @Abc_ObjIsLatch(ptr noundef %57)
  %59 = icmp ne i32 %58, 0
  br i1 %59, label %61, label %60

60:                                               ; preds = %56
  br label %63

61:                                               ; preds = %56
  %62 = load ptr, ptr %13, align 8
  call void @Abc_LatchSetInit0(ptr noundef %62)
  br label %63

63:                                               ; preds = %61, %60
  br label %64

64:                                               ; preds = %63
  %65 = load i32, ptr %14, align 4
  %66 = add nsw i32 %65, 1
  store i32 %66, ptr %14, align 4
  br label %43, !llvm.loop !87

67:                                               ; preds = %54
  br label %68

68:                                               ; preds = %67, %35
  %69 = load ptr, ptr %10, align 8
  call void @Aig_ManStop(ptr noundef %69)
  br label %70

70:                                               ; preds = %68, %20
  %71 = load ptr, ptr %12, align 8
  store ptr %71, ptr %5, align 8
  br label %72

72:                                               ; preds = %70, %19
  %73 = load ptr, ptr %5, align 8
  ret ptr %73
}