; Function Attrs: nounwind uwtable
define ptr @Abc_NtkDarLcorr(ptr noundef %0, i32 noundef %1, i32 noundef %2, i32 noundef %3) local_unnamed_addr #1 {
  %5 = tail call ptr @Abc_NtkToDar(ptr noundef %0, i32 noundef 0, i32 noundef 1)
  %6 = icmp eq ptr %5, null
  br i1 %6, label %34, label %7

7:                                                ; preds = %4
  %8 = tail call ptr @Fra_FraigLatchCorrespondence(ptr noundef nonnull %5, i32 noundef %1, i32 noundef %2, i32 noundef 0, i32 noundef %3, ptr noundef null, float noundef 0.000000e+00) #19
  tail call void @Aig_ManStop(ptr noundef nonnull %5) #19
  %.not = icmp eq ptr %8, null
  br i1 %.not, label %34, label %9

9:                                                ; preds = %7
  %10 = getelementptr i8, ptr %8, i64 104
  %.val31 = load i32, ptr %10, align 8
  %11 = getelementptr i8, ptr %0, i64 128
  %.val30 = load i32, ptr %11, align 8
  %12 = icmp slt i32 %.val31, %.val30
  br i1 %12, label %13, label %15

13:                                               ; preds = %9
  %14 = tail call ptr @Abc_NtkFromDarSeqSweep(ptr noundef nonnull %0, ptr noundef nonnull %8)
  br label %.critedge

15:                                               ; preds = %9
  %16 = tail call ptr @Abc_NtkFromDar(ptr noundef nonnull %0, ptr noundef nonnull %8)
  %17 = getelementptr inbounds nuw i8, ptr %16, i64 80
  %18 = load ptr, ptr %17, align 8
  %19 = getelementptr i8, ptr %18, i64 4
  %.val33 = load i32, ptr %19, align 4
  %20 = icmp sgt i32 %.val33, 0
  br i1 %20, label %.lr.ph, label %.critedge

.lr.ph:                                           ; preds = %15, %29
  %21 = phi ptr [ %30, %29 ], [ %18, %15 ]
  %indvars.iv = phi i64 [ %indvars.iv.next, %29 ], [ 0, %15 ]
  %22 = getelementptr i8, ptr %21, i64 8
  %.val28.val = load ptr, ptr %22, align 8
  %23 = getelementptr inbounds nuw ptr, ptr %.val28.val, i64 %indvars.iv
  %24 = load ptr, ptr %23, align 8
  %25 = getelementptr i8, ptr %24, i64 20
  %.val29 = load i32, ptr %25, align 4
  %26 = and i32 %.val29, 15
  %.not32 = icmp eq i32 %26, 8
  br i1 %.not32, label %27, label %29

27:                                               ; preds = %.lr.ph
  %28 = getelementptr inbounds nuw i8, ptr %24, i64 56
  store ptr inttoptr (i64 1 to ptr), ptr %28, align 8
  %.pre = load ptr, ptr %17, align 8
  br label %29

29:                                               ; preds = %27, %.lr.ph
  %30 = phi ptr [ %.pre, %27 ], [ %21, %.lr.ph ]
  %indvars.iv.next = add nuw nsw i64 %indvars.iv, 1
  %31 = getelementptr i8, ptr %30, i64 4
  %.val = load i32, ptr %31, align 4
  %32 = sext i32 %.val to i64
  %33 = icmp slt i64 %indvars.iv.next, %32
  br i1 %33, label %.lr.ph, label %.critedge, !llvm.loop !88

.critedge:                                        ; preds = %29, %15, %13
  %.1 = phi ptr [ %14, %13 ], [ %16, %15 ], [ %16, %29 ]
  tail call void @Aig_ManStop(ptr noundef nonnull %8) #19
  br label %34

34:                                               ; preds = %7, %.critedge, %4
  %.023 = phi ptr [ null, %4 ], [ %.1, %.critedge ], [ null, %7 ]
  ret ptr %.023
}